target datalayout = "e-m:e-p270:32:32-p271:32:32-p272:64:64-i64:64-i128:128-f80:128-n8:16:32:64-S128"
target triple = "x86_64-pc-linux-gnu"

%struct.Wlc_Ntk_t_ = type { ptr, ptr, %struct.Vec_Int_t_, %struct.Vec_Int_t_, %struct.Vec_Int_t_, %struct.Vec_Int_t_, %struct.Vec_Int_t_, %struct.Vec_Int_t_, ptr, ptr, ptr, [60 x i32], [60 x i32], i32, i32, i32, i32, i32, ptr, i32, i32, ptr, ptr, ptr, ptr, ptr, %struct.Vec_Int_t_, %struct.Vec_Int_t_, i32, %struct.Vec_Int_t_, %struct.Vec_Int_t_, %struct.Vec_Int_t_, %struct.Vec_Int_t_, %struct.Vec_Int_t_, %struct.Vec_Int_t_ }
%struct.Vec_Int_t_ = type { i32, i32, ptr }
%struct.Vec_Bit_t_ = type { i32, i32, ptr }
%struct.Wla_Man_t_ = type { ptr, ptr, ptr, ptr, ptr, ptr, ptr, ptr, ptr, ptr, i32, i32, i32, i32, i32, i32, i64, i64, i64 }
%struct.Wlc_Par_t_ = type { i32, i32, i32, i32, i32, i32, i32, i32, i32, i32, i32, i32, i32, i32, i32, i32, i32, i32, i32, i32, i32, i32, i32, ptr }
%struct.Pdr_Par_t_ = type { i32, i32, i32, i32, i32, i32, i32, i32, i32, i32, i32, i32, i32, i32, i32, i32, i32, i32, i32, i32, i32, i32, i32, i32, i32, i32, i32, i32, i32, i32, i32, i32, i32, i32, i32, i32, i32, i32, ptr, ptr, i64, ptr, ptr }

; Function Attrs: inlinehint nounwind uwtable
define internal ptr @Vec_BitAlloc(i32 noundef %0) #2 {
  %2 = alloca i32, align 4
  %3 = alloca ptr, align 8
  store i32 %0, ptr %2, align 4, !tbaa !15
  call void @llvm.lifetime.start.p0(i64 8, ptr %3) #13
  %4 = load i32, ptr %2, align 4, !tbaa !15
  %5 = ashr i32 %4, 5
  %6 = load i32, ptr %2, align 4, !tbaa !15
  %7 = and i32 %6, 31
  %8 = icmp sgt i32 %7, 0
  %9 = zext i1 %8 to i32
  %10 = add nsw i32 %5, %9
  store i32 %10, ptr %2, align 4, !tbaa !15
  %11 = call noalias ptr @malloc(i64 noundef 16) #15
  store ptr %11, ptr %3, align 8, !tbaa !37
  %12 = load ptr, ptr %3, align 8, !tbaa !37
  %13 = getelementptr inbounds nuw %struct.Vec_Bit_t_, ptr %12, i32 0, i32 1
  store i32 0, ptr %13, align 4, !tbaa !58
  %14 = load i32, ptr %2, align 4, !tbaa !15
  %15 = mul nsw i32 %14, 32
  %16 = load ptr, ptr %3, align 8, !tbaa !37
  %17 = getelementptr inbounds nuw %struct.Vec_Bit_t_, ptr %16, i32 0, i32 0
  store i32 %15, ptr %17, align 8, !tbaa !227
  %18 = load i32, ptr %2, align 4, !tbaa !15
  %19 = icmp ne i32 %18, 0
  br i1 %19, label %20, label %25

20:                                               ; preds = %1
  %21 = load i32, ptr %2, align 4, !tbaa !15
  %22 = sext i32 %21 to i64
  %23 = mul i64 4, %22
  %24 = call noalias ptr @malloc(i64 noundef %23) #15
  br label %26

25:                                               ; preds = %1
  br label %26

26:                                               ; preds = %25, %20
  %27 = phi ptr [ %24, %20 ], [ null, %25 ]
  %28 = load ptr, ptr %3, align 8, !tbaa !37
  %29 = getelementptr inbounds nuw %struct.Vec_Bit_t_, ptr %28, i32 0, i32 2
  store ptr %27, ptr %29, align 8, !tbaa !41
  %30 = load ptr, ptr %3, align 8, !tbaa !37
  call void @llvm.lifetime.end.p0(i64 8, ptr %3) #13
  ret ptr %30
}

; Function Attrs: inlinehint nounwind uwtable
define internal ptr @Vec_BitStart(i32 noundef %0) #2 {
  %2 = alloca i32, align 4
  %3 = alloca ptr, align 8
  store i32 %0, ptr %2, align 4, !tbaa !15
  call void @llvm.lifetime.start.p0(i64 8, ptr %3) #13
  %4 = load i32, ptr %2, align 4, !tbaa !15
  %5 = ashr i32 %4, 5
  %6 = load i32, ptr %2, align 4, !tbaa !15
  %7 = and i32 %6, 31
  %8 = icmp sgt i32 %7, 0
  %9 = zext i1 %8 to i32
  %10 = add nsw i32 %5, %9
  store i32 %10, ptr %2, align 4, !tbaa !15
  %11 = load i32, ptr %2, align 4, !tbaa !15
  %12 = mul nsw i32 %11, 32
  %13 = call ptr @Vec_BitAlloc(i32 noundef %12)
  store ptr %13, ptr %3, align 8, !tbaa !37
  %14 = load i32, ptr %2, align 4, !tbaa !15
  %15 = mul nsw i32 %14, 32
  %16 = load ptr, ptr %3, align 8, !tbaa !37
  %17 = getelementptr inbounds nuw %struct.Vec_Bit_t_, ptr %16, i32 0, i32 1
  store i32 %15, ptr %17, align 4, !tbaa !58
  %18 = load ptr, ptr %3, align 8, !tbaa !37
  %19 = getelementptr inbounds nuw %struct.Vec_Bit_t_, ptr %18, i32 0, i32 2
  %20 = load ptr, ptr %19, align 8, !tbaa !41
  %21 = load i32, ptr %2, align 4, !tbaa !15
  %22 = sext i32 %21 to i64
  %23 = mul i64 4, %22
  call void @llvm.memset.p0.i64(ptr align 4 %20, i8 0, i64 %23, i1 false)
  %24 = load ptr, ptr %3, align 8, !tbaa !37
  call void @llvm.lifetime.end.p0(i64 8, ptr %3) #13
  ret ptr %24
}

; Function Attrs: inlinehint nounwind uwtable
define internal i32 @Wlc_NtkObjNumMax(ptr noundef %0) #2 {
  %2 = alloca ptr, align 8
  store ptr %0, ptr %2, align 8, !tbaa !13
  %3 = load ptr, ptr %2, align 8, !tbaa !13
  %4 = getelementptr inbounds nuw %struct.Wlc_Ntk_t_, ptr %3, i32 0, i32 19
  %5 = load i32, ptr %4, align 8, !tbaa !36
  ret i32 %5
}

; Function Attrs: nounwind uwtable
define ptr @Wla_ManStart(ptr noundef %0, ptr noundef %1) #0 {
  %3 = alloca ptr, align 8
  %4 = alloca ptr, align 8
  %5 = alloca ptr, align 8
  %6 = alloca ptr, align 8
  store ptr %0, ptr %3, align 8, !tbaa !13
  store ptr %1, ptr %4, align 8, !tbaa !88
  call void @llvm.lifetime.start.p0(i64 8, ptr %5) #13
  %7 = call noalias ptr @calloc(i64 noundef 1, i64 noundef 128) #16
  store ptr %7, ptr %5, align 8, !tbaa !74
  call void @llvm.lifetime.start.p0(i64 8, ptr %6) #13
  %8 = load ptr, ptr %3, align 8, !tbaa !13
  %9 = load ptr, ptr %5, align 8, !tbaa !74
  %10 = getelementptr inbounds nuw %struct.Wla_Man_t_, ptr %9, i32 0, i32 0
  store ptr %8, ptr %10, align 8, !tbaa !85
  %11 = load ptr, ptr %4, align 8, !tbaa !88
  %12 = load ptr, ptr %5, align 8, !tbaa !74
  %13 = getelementptr inbounds nuw %struct.Wla_Man_t_, ptr %12, i32 0, i32 1
  store ptr %11, ptr %13, align 8, !tbaa !86
  %14 = load ptr, ptr %3, align 8, !tbaa !13
  %15 = call i32 @Wlc_NtkObjNumMax(ptr noundef %14)
  %16 = call ptr @Vec_BitStart(i32 noundef %15)
  %17 = load ptr, ptr %5, align 8, !tbaa !74
  %18 = getelementptr inbounds nuw %struct.Wla_Man_t_, ptr %17, i32 0, i32 7
  store ptr %16, ptr %18, align 8, !tbaa !83
  %19 = call noalias ptr @calloc(i64 noundef 1, i64 noundef 192) #16
  store ptr %19, ptr %6, align 8, !tbaa !116
  %20 = load ptr, ptr %6, align 8, !tbaa !116
  call void @Pdr_ManSetDefaultParams(ptr noundef %20)
  %21 = load ptr, ptr %4, align 8, !tbaa !88
  %22 = getelementptr inbounds nuw %struct.Wlc_Par_t_, ptr %21, i32 0, i32 21
  %23 = load i32, ptr %22, align 4, !tbaa !127
  %24 = load ptr, ptr %6, align 8, !tbaa !116
  %25 = getelementptr inbounds nuw %struct.Pdr_Par_t_, ptr %24, i32 0, i32 25
  store i32 %23, ptr %25, align 4, !tbaa !123
  %26 = load ptr, ptr %6, align 8, !tbaa !116
  %27 = getelementptr inbounds nuw %struct.Pdr_Par_t_, ptr %26, i32 0, i32 26
  store i32 0, ptr %27, align 8, !tbaa !206
  %28 = load ptr, ptr %4, align 8, !tbaa !88
  %29 = getelementptr inbounds nuw %struct.Wlc_Par_t_, ptr %28, i32 0, i32 23
  %30 = load ptr, ptr %29, align 8, !tbaa !207
  %31 = load ptr, ptr %6, align 8, !tbaa !116
  %32 = getelementptr inbounds nuw %struct.Pdr_Par_t_, ptr %31, i32 0, i32 38
  store ptr %30, ptr %32, align 8, !tbaa !134
  %33 = load ptr, ptr %4, align 8, !tbaa !88
  %34 = getelementptr inbounds nuw %struct.Wlc_Par_t_, ptr %33, i32 0, i32 22
  %35 = load i32, ptr %34, align 8, !tbaa !208
  %36 = load ptr, ptr %6, align 8, !tbaa !116
  %37 = getelementptr inbounds nuw %struct.Pdr_Par_t_, ptr %36, i32 0, i32 37
  store i32 %35, ptr %37, align 4, !tbaa !133
  %38 = load ptr, ptr %4, align 8, !tbaa !88
  %39 = getelementptr inbounds nuw %struct.Wlc_Par_t_, ptr %38, i32 0, i32 10
  %40 = load i32, ptr %39, align 8, !tbaa !209
  %41 = icmp ne i32 %40, 0
  br i1 %41, label %42, label %51

42:                                               ; preds = %2
  %43 = load ptr, ptr %6, align 8, !tbaa !116
  %44 = getelementptr inbounds nuw %struct.Pdr_Par_t_, ptr %43, i32 0, i32 23
  store i32 1, ptr %44, align 4, !tbaa !210
  %45 = load ptr, ptr %6, align 8, !tbaa !116
  %46 = getelementptr inbounds nuw %struct.Pdr_Par_t_, ptr %45, i32 0, i32 22
  store i32 1, ptr %46, align 8, !tbaa !211
  %47 = load ptr, ptr %6, align 8, !tbaa !116
  %48 = getelementptr inbounds nuw %struct.Pdr_Par_t_, ptr %47, i32 0, i32 21
  store i32 0, ptr %48, align 4, !tbaa !212
  %49 = load ptr, ptr %6, align 8, !tbaa !116
  %50 = getelementptr inbounds nuw %struct.Pdr_Par_t_, ptr %49, i32 0, i32 4
  store i32 500, ptr %50, align 8, !tbaa !213
  br label %51

51:                                               ; preds = %42, %2
  %52 = load ptr, ptr %6, align 8, !tbaa !116
  %53 = load ptr, ptr %5, align 8, !tbaa !74
  %54 = getelementptr inbounds nuw %struct.Wla_Man_t_, ptr %53, i32 0, i32 8
  store ptr %52, ptr %54, align 8, !tbaa !115
  %55 = load ptr, ptr %5, align 8, !tbaa !74
  %56 = getelementptr inbounds nuw %struct.Wla_Man_t_, ptr %55, i32 0, i32 10
  store i32 0, ptr %56, align 8, !tbaa !189
  %57 = load ptr, ptr %5, align 8, !tbaa !74
  %58 = getelementptr inbounds nuw %struct.Wla_Man_t_, ptr %57, i32 0, i32 11
  store i32 0, ptr %58, align 4, !tbaa !135
  %59 = load ptr, ptr %5, align 8, !tbaa !74
  %60 = getelementptr inbounds nuw %struct.Wla_Man_t_, ptr %59, i32 0, i32 12
  store i32 1, ptr %60, align 8, !tbaa !214
  %61 = load ptr, ptr %5, align 8, !tbaa !74
  %62 = getelementptr inbounds nuw %struct.Wla_Man_t_, ptr %61, i32 0, i32 13
  store i32 0, ptr %62, align 4, !tbaa !186
  %63 = load ptr, ptr %5, align 8, !tbaa !74
  %64 = getelementptr inbounds nuw %struct.Wla_Man_t_, ptr %63, i32 0, i32 14
  store i32 0, ptr %64, align 8, !tbaa !215
  %65 = load ptr, ptr %5, align 8, !tbaa !74
  %66 = getelementptr inbounds nuw %struct.Wla_Man_t_, ptr %65, i32 0, i32 15
  store i32 0, ptr %66, align 4, !tbaa !216
  %67 = load ptr, ptr %5, align 8, !tbaa !74
  call void @llvm.lifetime.end.p0(i64 8, ptr %6) #13
  call void @llvm.lifetime.end.p0(i64 8, ptr %5) #13
  ret ptr %67
}