; Function Attrs: nounwind uwtable
define noalias noundef ptr @Wla_ManStart(ptr noundef %0, ptr noundef %1) local_unnamed_addr #1 {
  %3 = tail call noalias dereferenceable_or_null(128) ptr @calloc(i64 noundef 1, i64 noundef 128) #28
  store ptr %0, ptr %3, align 8, !tbaa !78
  %4 = getelementptr inbounds nuw i8, ptr %3, i64 8
  store ptr %1, ptr %4, align 8, !tbaa !112
  %5 = getelementptr i8, ptr %0, i64 648
  %.val = load i32, ptr %5, align 8, !tbaa !30
  %6 = ashr i32 %.val, 5
  %7 = and i32 %.val, 31
  %8 = icmp ne i32 %7, 0
  %9 = zext i1 %8 to i32
  %10 = add nsw i32 %6, %9
  %11 = tail call noalias dereferenceable_or_null(16) ptr @malloc(i64 noundef 16) #27
  %12 = shl nsw i32 %10, 5
  store i32 %12, ptr %11, align 8, !tbaa !46
  %.not.i.i = icmp eq i32 %10, 0
  br i1 %.not.i.i, label %Vec_BitStart.exit, label %13

13:                                               ; preds = %2
  %14 = sext i32 %10 to i64
  %15 = shl nsw i64 %14, 2
  %16 = tail call noalias ptr @malloc(i64 noundef %15) #27
  br label %Vec_BitStart.exit

Vec_BitStart.exit:                                ; preds = %2, %13
  %.pre-phi8.i = phi i64 [ %15, %13 ], [ 0, %2 ]
  %17 = phi ptr [ %16, %13 ], [ null, %2 ]
  %18 = getelementptr inbounds nuw i8, ptr %11, i64 4
  %19 = getelementptr inbounds nuw i8, ptr %11, i64 8
  store ptr %17, ptr %19, align 8, !tbaa !37
  store i32 %12, ptr %18, align 4, !tbaa !47
  tail call void @llvm.memset.p0.i64(ptr align 4 %17, i8 0, i64 %.pre-phi8.i, i1 false)
  %20 = getelementptr inbounds nuw i8, ptr %3, i64 56
  store ptr %11, ptr %20, align 8, !tbaa !76
  %21 = tail call noalias dereferenceable_or_null(192) ptr @calloc(i64 noundef 1, i64 noundef 192) #28
  tail call void @Pdr_ManSetDefaultParams(ptr noundef %21) #24
  %22 = getelementptr inbounds nuw i8, ptr %1, i64 84
  %23 = load i32, ptr %22, align 4, !tbaa !138
  %24 = getelementptr inbounds nuw i8, ptr %21, i64 100
  store i32 %23, ptr %24, align 4, !tbaa !136
  %25 = getelementptr inbounds nuw i8, ptr %21, i64 104
  store i32 0, ptr %25, align 8, !tbaa !212
  %26 = getelementptr inbounds nuw i8, ptr %1, i64 96
  %27 = load ptr, ptr %26, align 8, !tbaa !213
  %28 = getelementptr inbounds nuw i8, ptr %21, i64 152
  store ptr %27, ptr %28, align 8, !tbaa !145
  %29 = getelementptr inbounds nuw i8, ptr %1, i64 88
  %30 = load i32, ptr %29, align 8, !tbaa !214
  %31 = getelementptr inbounds nuw i8, ptr %21, i64 148
  store i32 %30, ptr %31, align 4, !tbaa !144
  %32 = getelementptr inbounds nuw i8, ptr %1, i64 40
  %33 = load i32, ptr %32, align 8, !tbaa !215
  %.not = icmp eq i32 %33, 0
  br i1 %.not, label %39, label %34

34:                                               ; preds = %Vec_BitStart.exit
  %35 = getelementptr inbounds nuw i8, ptr %21, i64 92
  store i32 1, ptr %35, align 4, !tbaa !216
  %36 = getelementptr inbounds nuw i8, ptr %21, i64 88
  store i32 1, ptr %36, align 8, !tbaa !217
  %37 = getelementptr inbounds nuw i8, ptr %21, i64 84
  store i32 0, ptr %37, align 4, !tbaa !218
  %38 = getelementptr inbounds nuw i8, ptr %21, i64 16
  store i32 500, ptr %38, align 8, !tbaa !219
  br label %39

39:                                               ; preds = %34, %Vec_BitStart.exit
  %40 = getelementptr inbounds nuw i8, ptr %3, i64 64
  store ptr %21, ptr %40, align 8, !tbaa !132
  %41 = getelementptr inbounds nuw i8, ptr %3, i64 88
  store i32 1, ptr %41, align 8, !tbaa !220
  ret ptr %3
}